target datalayout = "e-m:e-p270:32:32-p271:32:32-p272:64:64-i64:64-i128:128-f80:128-n8:16:32:64-S128"
target triple = "x86_64-pc-linux-gnu"

%struct.LexState = type { ptr, ptr, %union.TValue, %union.TValue, ptr, ptr, i32, i32, i32, %struct.SBuf, ptr, ptr, i32, i32, ptr, ptr, ptr, ptr, i32, i32, ptr, i32, i32, i32, i32 }
%union.TValue = type { i64 }
%struct.SBuf = type { ptr, ptr, ptr, %struct.MRef }
%struct.MRef = type { i64 }

@.str.2 = private unnamed_addr constant [9 x i8] c"(binary)\00", align 1
@.str.3 = private unnamed_addr constant [7 x i8] c"%s: %s\00", align 1
@lj_err_allmsg = external hidden global ptr, align 8

; Function Attrs: noinline nounwind uwtable
define internal void @bcread_error(ptr noundef %0, i32 noundef %1) #4 {
  %3 = alloca ptr, align 8
  %4 = alloca i32, align 4
  %5 = alloca ptr, align 8
  %6 = alloca ptr, align 8
  store ptr %0, ptr %3, align 8, !tbaa !4
  store i32 %1, ptr %4, align 4, !tbaa !9
  call void @llvm.lifetime.start.p0(i64 8, ptr %5) #10
  %7 = load ptr, ptr %3, align 8, !tbaa !4
  %8 = getelementptr inbounds nuw %struct.LexState, ptr %7, i32 0, i32 1
  %9 = load ptr, ptr %8, align 8, !tbaa !22
  store ptr %9, ptr %5, align 8, !tbaa !66
  call void @llvm.lifetime.start.p0(i64 8, ptr %6) #10
  %10 = load ptr, ptr %3, align 8, !tbaa !4
  %11 = getelementptr inbounds nuw %struct.LexState, ptr %10, i32 0, i32 15
  %12 = load ptr, ptr %11, align 8, !tbaa !94
  store ptr %12, ptr %6, align 8, !tbaa !60
  %13 = load ptr, ptr %6, align 8, !tbaa !60
  %14 = load i8, ptr %13, align 1, !tbaa !48
  %15 = sext i8 %14 to i32
  %16 = icmp eq i32 %15, 27
  br i1 %16, label %17, label %18

17:                                               ; preds = %2
  store ptr @.str.2, ptr %6, align 8, !tbaa !60
  br label %32

18:                                               ; preds = %2
  %19 = load ptr, ptr %6, align 8, !tbaa !60
  %20 = load i8, ptr %19, align 1, !tbaa !48
  %21 = sext i8 %20 to i32
  %22 = icmp eq i32 %21, 64
  br i1 %22, label %28, label %23

23:                                               ; preds = %18
  %24 = load ptr, ptr %6, align 8, !tbaa !60
  %25 = load i8, ptr %24, align 1, !tbaa !48
  %26 = sext i8 %25 to i32
  %27 = icmp eq i32 %26, 61
  br i1 %27, label %28, label %31

28:                                               ; preds = %23, %18
  %29 = load ptr, ptr %6, align 8, !tbaa !60
  %30 = getelementptr inbounds nuw i8, ptr %29, i32 1
  store ptr %30, ptr %6, align 8, !tbaa !60
  br label %31

31:                                               ; preds = %28, %23
  br label %32

32:                                               ; preds = %31, %17
  %33 = load ptr, ptr %5, align 8, !tbaa !66
  %34 = load ptr, ptr %6, align 8, !tbaa !60
  %35 = load ptr, ptr @lj_err_allmsg, align 8, !tbaa !60
  %36 = load i32, ptr %4, align 4, !tbaa !9
  %37 = sext i32 %36 to i64
  %38 = getelementptr inbounds i8, ptr %35, i64 %37
  %39 = call ptr (ptr, ptr, ...) @lj_strfmt_pushf(ptr noundef %33, ptr noundef @.str.3, ptr noundef %34, ptr noundef %38)
  %40 = load ptr, ptr %5, align 8, !tbaa !66
  call void @lj_err_throw(ptr noundef %40, i32 noundef 3) #12
  unreachable
}