; Function Attrs: noinline noreturn nounwind uwtable
define internal fastcc void @bcread_error(ptr %.8.val, ptr %.128.val, i32 noundef range(i32 2951, 2986) %0) unnamed_addr #3 {
  %2 = load i8, ptr %.128.val, align 1, !tbaa !19
  switch i8 %2, label %.fold.split [
    i8 27, label %5
    i8 64, label %3
    i8 61, label %3
  ]

3:                                                ; preds = %1, %1
  %4 = getelementptr inbounds nuw i8, ptr %.128.val, i64 1
  br label %5

.fold.split:                                      ; preds = %1
  br label %5

5:                                                ; preds = %1, %.fold.split, %3
  %.0 = phi ptr [ %4, %3 ], [ @.str.2, %1 ], [ %.128.val, %.fold.split ]
  %6 = load ptr, ptr @lj_err_allmsg, align 8, !tbaa !86
  %7 = zext nneg i32 %0 to i64
  %8 = getelementptr inbounds nuw i8, ptr %6, i64 %7
  %9 = tail call ptr (ptr, ptr, ...) @lj_strfmt_pushf(ptr noundef %.8.val, ptr noundef nonnull @.str.3, ptr noundef nonnull %.0, ptr noundef nonnull %8) #11
  tail call void @lj_err_throw(ptr noundef %.8.val, i32 noundef 3) #13
  unreachable
}